; Function Attrs: nofree norecurse nosync nounwind memory(readwrite, inaccessiblemem: none) uwtable
define dso_local i64 @gtsquery_union(ptr noundef readonly captures(none) %0) local_unnamed_addr #2 {
  %2 = getelementptr inbounds nuw i8, ptr %0, i64 32
  %3 = load i64, ptr %2, align 8
  %4 = inttoptr i64 %3 to ptr
  %5 = getelementptr inbounds nuw i8, ptr %0, i64 48
  %6 = load i64, ptr %5, align 8
  %7 = load i32, ptr %4, align 8
  %8 = icmp sgt i32 %7, 0
  br i1 %8, label %.lr.ph, label %._crit_edge

.lr.ph:                                           ; preds = %1
  %9 = getelementptr inbounds nuw i8, ptr %4, i64 8
  %wide.trip.count = zext nneg i32 %7 to i64
  br label %10

10:                                               ; preds = %.lr.ph, %10
  %indvars.iv = phi i64 [ 0, %.lr.ph ], [ %indvars.iv.next, %10 ]
  %.0910 = phi i64 [ 0, %.lr.ph ], [ %13, %10 ]
  %11 = getelementptr inbounds nuw [0 x %struct.GISTENTRY], ptr %9, i64 0, i64 %indvars.iv
  %12 = load i64, ptr %11, align 8
  %13 = or i64 %12, %.0910
  %indvars.iv.next = add nuw nsw i64 %indvars.iv, 1
  %exitcond.not = icmp eq i64 %indvars.iv.next, %wide.trip.count
  br i1 %exitcond.not, label %._crit_edge, label %10, !llvm.loop !6

._crit_edge:                                      ; preds = %10, %1
  %.09.lcssa = phi i64 [ 0, %1 ], [ %13, %10 ]
  %14 = inttoptr i64 %6 to ptr
  store i32 8, ptr %14, align 4
  ret i64 %.09.lcssa
}